TN:
SF:/mnt/c/Users/hsuyi/Program/C/test/homework008.c
FN:16,24,is_integer
FN:26,34,is_variable
FN:36,51,is_float
FN:53,89,check_fractions
FN:7,14,is_pure_digits
FNDA:13,is_integer
FNDA:7,is_variable
FNDA:12,is_float
FNDA:13,check_fractions
FNDA:25,is_pure_digits
FNF:5
FNH:5
DA:7,25
DA:8,25
DA:9,25
DA:10,54
DA:11,22
DA:12,21
DA:13,20
DA:16,13
DA:17,13
DA:18,13
DA:19,11
DA:20,11
DA:21,11
DA:22,10
DA:23,7
DA:26,7
DA:27,7
DA:28,7
DA:29,5
DA:30,9
DA:31,7
DA:33,2
DA:36,12
DA:37,12
DA:38,12
DA:39,8
DA:40,8
DA:42,8
DA:43,8
DA:44,7
DA:46,6
DA:47,6
DA:48,12
DA:49,10
DA:50,3
DA:53,13
DA:54,13
DA:55,13
DA:57,12
DA:58,12
DA:60,5
DA:61,5
DA:63,5
DA:64,4
DA:65,4
DA:66,2
DA:67,2
DA:68,2
DA:70,1
DA:73,7
DA:74,7
DA:75,6
DA:76,10
DA:79,4
DA:80,4
DA:81,4
DA:83,4
DA:84,4
DA:85,4
DA:88,1
LF:60
LH:60
end_of_record
TN:
SF:/mnt/c/Users/hsuyi/Program/C/test/test_homework008.cpp
FN:18,18,_ZN32Homework008Test_IntegerTest_Test8TestBodyEv
FN:18,18,_ZN32Homework008Test_IntegerTest_TestC2Ev
FN:18,18,_ZN32Homework008Test_IntegerTest_TestD0Ev
FN:18,18,_ZN32Homework008Test_IntegerTest_TestD2Ev
FN:31,31,_ZN33Homework008Test_VariableTest_Test8TestBodyEv
FN:31,31,_ZN33Homework008Test_VariableTest_TestC2Ev
FN:31,31,_ZN33Homework008Test_VariableTest_TestD0Ev
FN:31,31,_ZN33Homework008Test_VariableTest_TestD2Ev
FN:42,42,_ZN30Homework008Test_FloatTest_Test8TestBodyEv
FN:42,42,_ZN30Homework008Test_FloatTest_TestC2Ev
FN:42,42,_ZN30Homework008Test_FloatTest_TestD0Ev
FN:42,42,_ZN30Homework008Test_FloatTest_TestD2Ev
FN:59,59,_ZN33Homework008Test_FractionTest_Test8TestBodyEv
FN:59,59,_ZN33Homework008Test_FractionTest_TestC2Ev
FN:59,59,_ZN33Homework008Test_FractionTest_TestD0Ev
FN:59,59,_ZN33Homework008Test_FractionTest_TestD2Ev
FN:8,8,_ZN35Homework008Test_PureDigitsTest_Test8TestBodyEv
FN:8,8,_ZN35Homework008Test_PureDigitsTest_TestC2Ev
FN:8,8,_ZN35Homework008Test_PureDigitsTest_TestD0Ev
FN:8,8,_ZN35Homework008Test_PureDigitsTest_TestD2Ev
FN:80,83,main
FNDA:1,_ZN32Homework008Test_IntegerTest_Test8TestBodyEv
FNDA:1,_ZN32Homework008Test_IntegerTest_TestC2Ev
FNDA:1,_ZN32Homework008Test_IntegerTest_TestD0Ev
FNDA:1,_ZN32Homework008Test_IntegerTest_TestD2Ev
FNDA:1,_ZN33Homework008Test_VariableTest_Test8TestBodyEv
FNDA:1,_ZN33Homework008Test_VariableTest_TestC2Ev
FNDA:1,_ZN33Homework008Test_VariableTest_TestD0Ev
FNDA:1,_ZN33Homework008Test_VariableTest_TestD2Ev
FNDA:1,_ZN30Homework008Test_FloatTest_Test8TestBodyEv
FNDA:1,_ZN30Homework008Test_FloatTest_TestC2Ev
FNDA:1,_ZN30Homework008Test_FloatTest_TestD0Ev
FNDA:1,_ZN30Homework008Test_FloatTest_TestD2Ev
FNDA:1,_ZN33Homework008Test_FractionTest_Test8TestBodyEv
FNDA:1,_ZN33Homework008Test_FractionTest_TestC2Ev
FNDA:1,_ZN33Homework008Test_FractionTest_TestD0Ev
FNDA:1,_ZN33Homework008Test_FractionTest_TestD2Ev
FNDA:1,_ZN35Homework008Test_PureDigitsTest_Test8TestBodyEv
FNDA:1,_ZN35Homework008Test_PureDigitsTest_TestC2Ev
FNDA:1,_ZN35Homework008Test_PureDigitsTest_TestD0Ev
FNDA:1,_ZN35Homework008Test_PureDigitsTest_TestD2Ev
FNDA:1,main
FNF:21
FNH:21
DA:8,4
DA:9,1
DA:10,1
DA:11,1
DA:12,1
DA:13,1
DA:14,1
DA:15,1
DA:18,4
DA:19,1
DA:20,1
DA:21,1
DA:22,1
DA:23,1
DA:24,1
DA:25,1
DA:26,1
DA:27,1
DA:28,1
DA:31,4
DA:32,1
DA:33,1
DA:34,1
DA:35,1
DA:36,1
DA:37,1
DA:38,1
DA:39,1
DA:42,4
DA:43,1
DA:44,1
DA:45,1
DA:46,1
DA:47,1
DA:48,1
DA:49,1
DA:50,1
DA:51,1
DA:52,1
DA:53,1
DA:54,1
DA:55,1
DA:56,1
DA:59,4
DA:61,1
DA:62,1
DA:63,1
DA:64,1
DA:65,1
DA:68,1
DA:69,1
DA:70,1
DA:71,1
DA:74,1
DA:75,1
DA:76,1
DA:77,1
DA:78,1
DA:80,1
DA:81,1
DA:82,1
LF:61
LH:61
end_of_record
